target datalayout = "e-m:e-p270:32:32-p271:32:32-p272:64:64-i64:64-i128:128-f80:128-n8:16:32:64-S128"
target triple = "x86_64-pc-linux-gnu"

@.str.14 = private unnamed_addr constant [27 x i8] c"../openssl/test/dtlstest.c\00", align 1
@cert = internal global ptr null, align 8
@privkey = internal global ptr null, align 8
@timer_cb_count = internal global i32 0, align 4
@.str.25 = private unnamed_addr constant [117 x i8] c"create_ssl_ctx_pair(NULL, DTLS_server_method(), DTLS_client_method(), DTLS1_VERSION, 0, &sctx, &cctx, cert, privkey)\00", align 1
@.str.26 = private unnamed_addr constant [44 x i8] c"SSL_CTX_set_cipher_list(cctx, \22AES128-SHA\22)\00", align 1
@.str.27 = private unnamed_addr constant [11 x i8] c"AES128-SHA\00", align 1
@.str.28 = private unnamed_addr constant [12 x i8] c"c_to_s_fbio\00", align 1
@.str.29 = private unnamed_addr constant [76 x i8] c"create_ssl_objects(sctx, cctx, &serverssl1, &clientssl1, NULL, c_to_s_fbio)\00", align 1
@certstatus = internal global [35 x i8] c"\16\FE\FD\00\01\00\00\00\00\00\0F\00\16\16\00\00\0C\00\05\00\00\00\00\00\0A\80\80\80\80\80\80\80\80\80\80", align 16
@.str.30 = private unnamed_addr constant [73 x i8] c"create_bare_ssl_connection(serverssl1, clientssl1, SSL_ERROR_NONE, 0, 0)\00", align 1
@.str.31 = private unnamed_addr constant [32 x i8] c"timer_callback was not called.\0A\00", align 1

; Function Attrs: nounwind uwtable
define internal i32 @test_dtls_unprocessed(i32 noundef %0) #0 {
  %2 = alloca i32, align 4
  %3 = alloca i32, align 4
  %4 = alloca ptr, align 8
  %5 = alloca ptr, align 8
  %6 = alloca ptr, align 8
  %7 = alloca ptr, align 8
  %8 = alloca ptr, align 8
  %9 = alloca ptr, align 8
  %10 = alloca i32, align 4
  %11 = alloca i32, align 4
  store i32 %0, ptr %3, align 4, !tbaa !9
  call void @llvm.lifetime.start.p0(i64 8, ptr %4) #5
  store ptr null, ptr %4, align 8, !tbaa !11
  call void @llvm.lifetime.start.p0(i64 8, ptr %5) #5
  store ptr null, ptr %5, align 8, !tbaa !11
  call void @llvm.lifetime.start.p0(i64 8, ptr %6) #5
  store ptr null, ptr %6, align 8, !tbaa !13
  call void @llvm.lifetime.start.p0(i64 8, ptr %7) #5
  store ptr null, ptr %7, align 8, !tbaa !13
  call void @llvm.lifetime.start.p0(i64 8, ptr %8) #5
  call void @llvm.lifetime.start.p0(i64 8, ptr %9) #5
  call void @llvm.lifetime.start.p0(i64 4, ptr %10) #5
  store i32 0, ptr %10, align 4, !tbaa !9
  store i32 0, ptr @timer_cb_count, align 4, !tbaa !9
  %12 = call ptr @DTLS_server_method()
  %13 = call ptr @DTLS_client_method()
  %14 = load ptr, ptr @cert, align 8, !tbaa !4
  %15 = load ptr, ptr @privkey, align 8, !tbaa !4
  %16 = call i32 @create_ssl_ctx_pair(ptr noundef null, ptr noundef %12, ptr noundef %13, i32 noundef 65279, i32 noundef 0, ptr noundef %4, ptr noundef %5, ptr noundef %14, ptr noundef %15)
  %17 = icmp ne i32 %16, 0
  %18 = zext i1 %17 to i32
  %19 = call i32 @test_true(ptr noundef @.str.14, i32 noundef 83, ptr noundef @.str.25, i32 noundef %18)
  %20 = icmp ne i32 %19, 0
  br i1 %20, label %22, label %21

21:                                               ; preds = %1
  store i32 0, ptr %2, align 4
  store i32 1, ptr %11, align 4
  br label %79

22:                                               ; preds = %1
  %23 = load ptr, ptr %5, align 8, !tbaa !11
  %24 = call i32 @SSL_CTX_set_cipher_list(ptr noundef %23, ptr noundef @.str.27)
  %25 = icmp ne i32 %24, 0
  %26 = zext i1 %25 to i32
  %27 = call i32 @test_true(ptr noundef @.str.14, i32 noundef 87, ptr noundef @.str.26, i32 noundef %26)
  %28 = icmp ne i32 %27, 0
  br i1 %28, label %30, label %29

29:                                               ; preds = %22
  br label %73

30:                                               ; preds = %22
  %31 = call ptr @bio_f_tls_dump_filter()
  %32 = call ptr @BIO_new(ptr noundef %31)
  store ptr %32, ptr %8, align 8, !tbaa !15
  %33 = load ptr, ptr %8, align 8, !tbaa !15
  %34 = call i32 @test_ptr(ptr noundef @.str.14, i32 noundef 98, ptr noundef @.str.28, ptr noundef %33)
  %35 = icmp ne i32 %34, 0
  br i1 %35, label %37, label %36

36:                                               ; preds = %30
  br label %73

37:                                               ; preds = %30
  %38 = load ptr, ptr %4, align 8, !tbaa !11
  %39 = load ptr, ptr %5, align 8, !tbaa !11
  %40 = load ptr, ptr %8, align 8, !tbaa !15
  %41 = call i32 @create_ssl_objects(ptr noundef %38, ptr noundef %39, ptr noundef %6, ptr noundef %7, ptr noundef null, ptr noundef %40)
  %42 = icmp ne i32 %41, 0
  %43 = zext i1 %42 to i32
  %44 = call i32 @test_true(ptr noundef @.str.14, i32 noundef 103, ptr noundef @.str.29, i32 noundef %43)
  %45 = icmp ne i32 %44, 0
  br i1 %45, label %47, label %46

46:                                               ; preds = %37
  br label %73

47:                                               ; preds = %37
  %48 = load ptr, ptr %7, align 8, !tbaa !13
  call void @DTLS_set_timer_cb(ptr noundef %48, ptr noundef @timer_cb)
  %49 = load i32, ptr %3, align 4, !tbaa !9
  %50 = icmp eq i32 %49, 1
  br i1 %50, label %51, label %52

51:                                               ; preds = %47
  store i8 -1, ptr getelementptr inbounds ([35 x i8], ptr @certstatus, i64 0, i64 10), align 2, !tbaa !17
  br label %52

52:                                               ; preds = %51, %47
  %53 = load ptr, ptr %7, align 8, !tbaa !13
  %54 = call ptr @SSL_get_wbio(ptr noundef %53)
  store ptr %54, ptr %9, align 8, !tbaa !15
  %55 = load ptr, ptr %9, align 8, !tbaa !15
  %56 = call ptr @BIO_next(ptr noundef %55)
  store ptr %56, ptr %9, align 8, !tbaa !15
  %57 = load ptr, ptr %9, align 8, !tbaa !15
  %58 = call i32 @mempacket_test_inject(ptr noundef %57, ptr noundef @certstatus, i32 noundef 35, i32 noundef 1, i32 noundef 2)
  %59 = load ptr, ptr %6, align 8, !tbaa !13
  %60 = load ptr, ptr %7, align 8, !tbaa !13
  %61 = call i32 @create_bare_ssl_connection(ptr noundef %59, ptr noundef %60, i32 noundef 0, i32 noundef 0, i32 noundef 0)
  %62 = icmp ne i32 %61, 0
  %63 = zext i1 %62 to i32
  %64 = call i32 @test_true(ptr noundef @.str.14, i32 noundef 128, ptr noundef @.str.30, i32 noundef %63)
  %65 = icmp ne i32 %64, 0
  br i1 %65, label %67, label %66

66:                                               ; preds = %52
  br label %73

67:                                               ; preds = %52
  %68 = load i32, ptr @timer_cb_count, align 4, !tbaa !9
  %69 = icmp eq i32 %68, 0
  br i1 %69, label %70, label %72

70:                                               ; preds = %67
  %71 = call i32 (ptr, ...) @printf(ptr noundef @.str.31)
  br label %73

72:                                               ; preds = %67
  store i32 1, ptr %10, align 4, !tbaa !9
  br label %73

73:                                               ; preds = %72, %70, %66, %46, %36, %29
  %74 = load ptr, ptr %6, align 8, !tbaa !13
  call void @SSL_free(ptr noundef %74)
  %75 = load ptr, ptr %7, align 8, !tbaa !13
  call void @SSL_free(ptr noundef %75)
  %76 = load ptr, ptr %4, align 8, !tbaa !11
  call void @SSL_CTX_free(ptr noundef %76)
  %77 = load ptr, ptr %5, align 8, !tbaa !11
  call void @SSL_CTX_free(ptr noundef %77)
  %78 = load i32, ptr %10, align 4, !tbaa !9
  store i32 %78, ptr %2, align 4
  store i32 1, ptr %11, align 4
  br label %79

79:                                               ; preds = %73, %21
  call void @llvm.lifetime.end.p0(i64 4, ptr %10) #5
  call void @llvm.lifetime.end.p0(i64 8, ptr %9) #5
  call void @llvm.lifetime.end.p0(i64 8, ptr %8) #5
  call void @llvm.lifetime.end.p0(i64 8, ptr %7) #5
  call void @llvm.lifetime.end.p0(i64 8, ptr %6) #5
  call void @llvm.lifetime.end.p0(i64 8, ptr %5) #5
  call void @llvm.lifetime.end.p0(i64 8, ptr %4) #5
  %80 = load i32, ptr %2, align 4
  ret i32 %80
}