; Function Attrs: nounwind uwtable
define internal range(i32 0, 2) i32 @test_dtls_unprocessed(i32 noundef %0) #1 {
  %2 = alloca ptr, align 8
  %3 = alloca ptr, align 8
  %4 = alloca ptr, align 8
  %5 = alloca ptr, align 8
  call void @llvm.lifetime.start.p0(i64 8, ptr nonnull %2) #8
  store ptr null, ptr %2, align 8, !tbaa !9
  call void @llvm.lifetime.start.p0(i64 8, ptr nonnull %3) #8
  store ptr null, ptr %3, align 8, !tbaa !9
  call void @llvm.lifetime.start.p0(i64 8, ptr nonnull %4) #8
  store ptr null, ptr %4, align 8, !tbaa !11
  call void @llvm.lifetime.start.p0(i64 8, ptr nonnull %5) #8
  store ptr null, ptr %5, align 8, !tbaa !11
  store i32 0, ptr @timer_cb_count, align 4, !tbaa !13
  %6 = tail call ptr @DTLS_server_method() #8
  %7 = tail call ptr @DTLS_client_method() #8
  %8 = load ptr, ptr @cert, align 8, !tbaa !4
  %9 = load ptr, ptr @privkey, align 8, !tbaa !4
  %10 = call i32 @create_ssl_ctx_pair(ptr noundef null, ptr noundef %6, ptr noundef %7, i32 noundef 65279, i32 noundef 0, ptr noundef nonnull %2, ptr noundef nonnull %3, ptr noundef %8, ptr noundef %9) #8
  %11 = icmp ne i32 %10, 0
  %12 = zext i1 %11 to i32
  %13 = call i32 @test_true(ptr noundef nonnull @.str.14, i32 noundef 83, ptr noundef nonnull @.str.25, i32 noundef %12) #8
  %.not = icmp eq i32 %13, 0
  br i1 %.not, label %55, label %14

14:                                               ; preds = %1
  %15 = load ptr, ptr %3, align 8, !tbaa !9
  %16 = call i32 @SSL_CTX_set_cipher_list(ptr noundef %15, ptr noundef nonnull @.str.27) #8
  %17 = icmp ne i32 %16, 0
  %18 = zext i1 %17 to i32
  %19 = call i32 @test_true(ptr noundef nonnull @.str.14, i32 noundef 87, ptr noundef nonnull @.str.26, i32 noundef %18) #8
  %.not7 = icmp eq i32 %19, 0
  br i1 %.not7, label %50, label %20

20:                                               ; preds = %14
  %21 = call ptr @bio_f_tls_dump_filter() #8
  %22 = call ptr @BIO_new(ptr noundef %21) #8
  %23 = call i32 @test_ptr(ptr noundef nonnull @.str.14, i32 noundef 98, ptr noundef nonnull @.str.28, ptr noundef %22) #8
  %.not8 = icmp eq i32 %23, 0
  br i1 %.not8, label %50, label %24

24:                                               ; preds = %20
  %25 = load ptr, ptr %2, align 8, !tbaa !9
  %26 = load ptr, ptr %3, align 8, !tbaa !9
  %27 = call i32 @create_ssl_objects(ptr noundef %25, ptr noundef %26, ptr noundef nonnull %4, ptr noundef nonnull %5, ptr noundef null, ptr noundef %22) #8
  %28 = icmp ne i32 %27, 0
  %29 = zext i1 %28 to i32
  %30 = call i32 @test_true(ptr noundef nonnull @.str.14, i32 noundef 103, ptr noundef nonnull @.str.29, i32 noundef %29) #8
  %.not9 = icmp eq i32 %30, 0
  br i1 %.not9, label %50, label %31

31:                                               ; preds = %24
  %32 = load ptr, ptr %5, align 8, !tbaa !11
  call void @DTLS_set_timer_cb(ptr noundef %32, ptr noundef nonnull @timer_cb) #8
  %33 = icmp eq i32 %0, 1
  br i1 %33, label %34, label %35

34:                                               ; preds = %31
  store i8 -1, ptr getelementptr inbounds nuw (i8, ptr @certstatus, i64 10), align 2, !tbaa !15
  br label %35

35:                                               ; preds = %34, %31
  %36 = load ptr, ptr %5, align 8, !tbaa !11
  %37 = call ptr @SSL_get_wbio(ptr noundef %36) #8
  %38 = call ptr @BIO_next(ptr noundef %37) #8
  %39 = call i32 @mempacket_test_inject(ptr noundef %38, ptr noundef nonnull @certstatus, i32 noundef 35, i32 noundef 1, i32 noundef 2) #8
  %40 = load ptr, ptr %4, align 8, !tbaa !11
  %41 = load ptr, ptr %5, align 8, !tbaa !11
  %42 = call i32 @create_bare_ssl_connection(ptr noundef %40, ptr noundef %41, i32 noundef 0, i32 noundef 0, i32 noundef 0) #8
  %43 = icmp ne i32 %42, 0
  %44 = zext i1 %43 to i32
  %45 = call i32 @test_true(ptr noundef nonnull @.str.14, i32 noundef 128, ptr noundef nonnull @.str.30, i32 noundef %44) #8
  %.not10 = icmp eq i32 %45, 0
  br i1 %.not10, label %50, label %46

46:                                               ; preds = %35
  %47 = load i32, ptr @timer_cb_count, align 4, !tbaa !13
  %48 = icmp eq i32 %47, 0
  br i1 %48, label %49, label %50

49:                                               ; preds = %46
  %puts = call i32 @puts(ptr nonnull dereferenceable(1) @str)
  br label %50

50:                                               ; preds = %46, %35, %24, %20, %14, %49
  %.0 = phi i32 [ 0, %49 ], [ 0, %35 ], [ 0, %24 ], [ 0, %20 ], [ 0, %14 ], [ 1, %46 ]
  %51 = load ptr, ptr %4, align 8, !tbaa !11
  call void @SSL_free(ptr noundef %51) #8
  %52 = load ptr, ptr %5, align 8, !tbaa !11
  call void @SSL_free(ptr noundef %52) #8
  %53 = load ptr, ptr %2, align 8, !tbaa !9
  call void @SSL_CTX_free(ptr noundef %53) #8
  %54 = load ptr, ptr %3, align 8, !tbaa !9
  call void @SSL_CTX_free(ptr noundef %54) #8
  br label %55

55:                                               ; preds = %1, %50
  %.06 = phi i32 [ %.0, %50 ], [ 0, %1 ]
  call void @llvm.lifetime.end.p0(i64 8, ptr nonnull %5) #8
  call void @llvm.lifetime.end.p0(i64 8, ptr nonnull %4) #8
  call void @llvm.lifetime.end.p0(i64 8, ptr nonnull %3) #8
  call void @llvm.lifetime.end.p0(i64 8, ptr nonnull %2) #8
  ret i32 %.06
}